target datalayout = "e-m:e-p270:32:32-p271:32:32-p272:64:64-i64:64-i128:128-f80:128-n8:16:32:64-S128"
target triple = "x86_64-pc-linux-gnu"

%struct.options_data_t = type { ptr, ptr, ptr, ptr, ptr, ptr, ptr, ptr, ptr, ptr, ptr, ptr, ptr, ptr, ptr, ptr, ptr, ptr, ptr, ptr }

@options_data = internal global ptr null, align 8
@parse_options_idx = internal global i32 -1, align 4

; Function Attrs: nounwind uwtable
define internal i32 @find_options_index(ptr noundef %0) #0 {
  %2 = alloca i32, align 4
  %3 = alloca ptr, align 8
  %4 = alloca i32, align 4
  %5 = alloca i32, align 4
  %6 = alloca i32, align 4
  store ptr %0, ptr %3, align 8, !tbaa !11
  call void @llvm.lifetime.start.p0(i64 4, ptr %4) #9
  call void @llvm.lifetime.start.p0(i64 4, ptr %5) #9
  store i32 0, ptr %4, align 4, !tbaa !4
  br label %7

7:                                                ; preds = %52, %1
  %8 = load i32, ptr %4, align 4, !tbaa !4
  %9 = load i32, ptr @parse_options_idx, align 4, !tbaa !4
  %10 = icmp sle i32 %8, %9
  br i1 %10, label %11, label %55

11:                                               ; preds = %7
  %12 = load ptr, ptr @options_data, align 8, !tbaa !19
  %13 = load i32, ptr %4, align 4, !tbaa !4
  %14 = sext i32 %13 to i64
  %15 = getelementptr inbounds %struct.options_data_t, ptr %12, i64 %14
  %16 = getelementptr inbounds nuw %struct.options_data_t, ptr %15, i32 0, i32 0
  %17 = load ptr, ptr %16, align 8, !tbaa !44
  %18 = icmp eq ptr null, %17
  br i1 %18, label %19, label %20

19:                                               ; preds = %11
  br label %52

20:                                               ; preds = %11
  store i32 0, ptr %5, align 4, !tbaa !4
  br label %21

21:                                               ; preds = %48, %20
  %22 = load i32, ptr %5, align 4, !tbaa !4
  %23 = load ptr, ptr @options_data, align 8, !tbaa !19
  %24 = load i32, ptr %4, align 4, !tbaa !4
  %25 = sext i32 %24 to i64
  %26 = getelementptr inbounds %struct.options_data_t, ptr %23, i64 %25
  %27 = getelementptr inbounds nuw %struct.options_data_t, ptr %26, i32 0, i32 0
  %28 = load ptr, ptr %27, align 8, !tbaa !44
  %29 = call i32 @PMIx_Argv_count(ptr noundef %28)
  %30 = icmp slt i32 %22, %29
  br i1 %30, label %31, label %51

31:                                               ; preds = %21
  %32 = load ptr, ptr %3, align 8, !tbaa !11
  %33 = load ptr, ptr @options_data, align 8, !tbaa !19
  %34 = load i32, ptr %4, align 4, !tbaa !4
  %35 = sext i32 %34 to i64
  %36 = getelementptr inbounds %struct.options_data_t, ptr %33, i64 %35
  %37 = getelementptr inbounds nuw %struct.options_data_t, ptr %36, i32 0, i32 0
  %38 = load ptr, ptr %37, align 8, !tbaa !44
  %39 = load i32, ptr %5, align 4, !tbaa !4
  %40 = sext i32 %39 to i64
  %41 = getelementptr inbounds ptr, ptr %38, i64 %40
  %42 = load ptr, ptr %41, align 8, !tbaa !11
  %43 = call i32 @strcmp(ptr noundef %32, ptr noundef %42) #11
  %44 = icmp eq i32 0, %43
  br i1 %44, label %45, label %47

45:                                               ; preds = %31
  %46 = load i32, ptr %4, align 4, !tbaa !4
  store i32 %46, ptr %2, align 4
  store i32 1, ptr %6, align 4
  br label %56

47:                                               ; preds = %31
  br label %48

48:                                               ; preds = %47
  %49 = load i32, ptr %5, align 4, !tbaa !4
  %50 = add nsw i32 %49, 1
  store i32 %50, ptr %5, align 4, !tbaa !4
  br label %21, !llvm.loop !45

51:                                               ; preds = %21
  br label %52

52:                                               ; preds = %51, %19
  %53 = load i32, ptr %4, align 4, !tbaa !4
  %54 = add nsw i32 %53, 1
  store i32 %54, ptr %4, align 4, !tbaa !4
  br label %7, !llvm.loop !46

55:                                               ; preds = %7
  store i32 -1, ptr %2, align 4
  store i32 1, ptr %6, align 4
  br label %56

56:                                               ; preds = %55, %45
  call void @llvm.lifetime.end.p0(i64 4, ptr %5) #9
  call void @llvm.lifetime.end.p0(i64 4, ptr %4) #9
  %57 = load i32, ptr %2, align 4
  ret i32 %57
}