; Function Attrs: nounwind uwtable
define internal fastcc i32 @find_options_index(ptr noundef readonly captures(none) %0) unnamed_addr #0 {
  %2 = load i32, ptr @parse_options_idx, align 4, !tbaa !4
  %.not16 = icmp slt i32 %2, 0
  br i1 %.not16, label %.loopexit12, label %.lr.ph19

.lr.ph19:                                         ; preds = %1, %.loopexit
  %indvars.iv23 = phi i64 [ %indvars.iv.next24, %.loopexit ], [ 0, %1 ]
  %3 = load ptr, ptr @options_data, align 8, !tbaa !17
  %4 = getelementptr inbounds nuw %struct.options_data_t, ptr %3, i64 %indvars.iv23
  %5 = load ptr, ptr %4, align 8, !tbaa !19
  %6 = icmp eq ptr %5, null
  br i1 %6, label %.loopexit, label %.preheader

.preheader:                                       ; preds = %.lr.ph19
  %7 = tail call i32 @PMIx_Argv_count(ptr noundef nonnull %5) #16
  %8 = icmp sgt i32 %7, 0
  br i1 %8, label %.lr.ph, label %.loopexit

9:                                                ; preds = %.lr.ph
  %indvars.iv.next = add nuw nsw i64 %indvars.iv, 1
  %10 = tail call i32 @PMIx_Argv_count(ptr noundef nonnull %15) #16
  %11 = sext i32 %10 to i64
  %12 = icmp slt i64 %indvars.iv.next, %11
  br i1 %12, label %.lr.ph, label %.loopexit, !llvm.loop !21

.lr.ph:                                           ; preds = %.preheader, %9
  %indvars.iv = phi i64 [ %indvars.iv.next, %9 ], [ 0, %.preheader ]
  %13 = load ptr, ptr @options_data, align 8, !tbaa !17
  %14 = getelementptr inbounds nuw %struct.options_data_t, ptr %13, i64 %indvars.iv23
  %15 = load ptr, ptr %14, align 8, !tbaa !19
  %16 = getelementptr inbounds nuw ptr, ptr %15, i64 %indvars.iv
  %17 = load ptr, ptr %16, align 8, !tbaa !13
  %18 = tail call i32 @strcmp(ptr noundef nonnull dereferenceable(1) %0, ptr noundef nonnull dereferenceable(1) %17) #18
  %19 = icmp eq i32 %18, 0
  br i1 %19, label %.loopexit12.loopexit, label %9

.loopexit:                                        ; preds = %9, %.preheader, %.lr.ph19
  %indvars.iv.next24 = add nuw nsw i64 %indvars.iv23, 1
  %20 = load i32, ptr @parse_options_idx, align 4, !tbaa !4
  %21 = sext i32 %20 to i64
  %.not.not = icmp slt i64 %indvars.iv23, %21
  br i1 %.not.not, label %.lr.ph19, label %.loopexit12, !llvm.loop !23

.loopexit12.loopexit:                             ; preds = %.lr.ph
  %22 = trunc nuw nsw i64 %indvars.iv23 to i32
  br label %.loopexit12

.loopexit12:                                      ; preds = %.loopexit, %.loopexit12.loopexit, %1
  %.011 = phi i32 [ -1, %1 ], [ %22, %.loopexit12.loopexit ], [ -1, %.loopexit ]
  ret i32 %.011
}